; ModuleID = '29/385.c'
source_filename = "29/385.c"
target datalayout = "e-m:e-p270:32:32-p271:32:32-p272:64:64-i64:64-f80:128-n8:16:32:64-S128"
target triple = "x86_64-pc-linux-gnu"

@.str = private unnamed_addr constant [3 x i8] c"%d\00", align 1
@.str.1 = private unnamed_addr constant [7 x i8] c"%.3lf\0A\00", align 1

; Function Attrs: noinline nounwind uwtable
define dso_local i32 @main() #0 {
  %1 = alloca i32, align 4
  %2 = alloca [1000 x double], align 16
  %3 = alloca [1000 x double], align 16
  %4 = alloca [1000 x double], align 16
  %5 = alloca i32, align 4
  %6 = alloca i32, align 4
  %7 = alloca i32, align 4
  %8 = alloca i32, align 4
  %9 = alloca double, align 8
  store i32 0, i32* %1, align 4
  %10 = call i32 (i8*, ...) @__isoc99_scanf(i8* getelementptr inbounds ([3 x i8], [3 x i8]* @.str, i64 0, i64 0), i32* %8)
  %11 = getelementptr inbounds [1000 x double], [1000 x double]* %2, i64 0, i64 0
  store double 2.000000e+00, double* %11, align 16
  %12 = getelementptr inbounds [1000 x double], [1000 x double]* %3, i64 0, i64 0
  store double 1.000000e+00, double* %12, align 16
  %13 = getelementptr inbounds [1000 x double], [1000 x double]* %4, i64 0, i64 0
  store double 2.000000e+00, double* %13, align 16
  store i32 1, i32* %6, align 4
  br label %14

14:                                               ; preds = %52, %0
  %15 = load i32, i32* %6, align 4
  %16 = icmp slt i32 %15, 1000
  br i1 %16, label %17, label %55

17:                                               ; preds = %14
  %18 = load i32, i32* %6, align 4
  %19 = sub nsw i32 %18, 1
  %20 = sext i32 %19 to i64
  %21 = getelementptr inbounds [1000 x double], [1000 x double]* %2, i64 0, i64 %20
  %22 = load double, double* %21, align 8
  %23 = load i32, i32* %6, align 4
  %24 = sub nsw i32 %23, 1
  %25 = sext i32 %24 to i64
  %26 = getelementptr inbounds [1000 x double], [1000 x double]* %3, i64 0, i64 %25
  %27 = load double, double* %26, align 8
  %28 = fadd double %22, %27
  %29 = load i32, i32* %6, align 4
  %30 = sext i32 %29 to i64
  %31 = getelementptr inbounds [1000 x double], [1000 x double]* %2, i64 0, i64 %30
  store double %28, double* %31, align 8
  %32 = load i32, i32* %6, align 4
  %33 = sub nsw i32 %32, 1
  %34 = sext i32 %33 to i64
  %35 = getelementptr inbounds [1000 x double], [1000 x double]* %2, i64 0, i64 %34
  %36 = load double, double* %35, align 8
  %37 = load i32, i32* %6, align 4
  %38 = sext i32 %37 to i64
  %39 = getelementptr inbounds [1000 x double], [1000 x double]* %3, i64 0, i64 %38
  store double %36, double* %39, align 8
  %40 = load i32, i32* %6, align 4
  %41 = sext i32 %40 to i64
  %42 = getelementptr inbounds [1000 x double], [1000 x double]* %2, i64 0, i64 %41
  %43 = load double, double* %42, align 8
  %44 = load i32, i32* %6, align 4
  %45 = sext i32 %44 to i64
  %46 = getelementptr inbounds [1000 x double], [1000 x double]* %3, i64 0, i64 %45
  %47 = load double, double* %46, align 8
  %48 = fdiv double %43, %47
  %49 = load i32, i32* %6, align 4
  %50 = sext i32 %49 to i64
  %51 = getelementptr inbounds [1000 x double], [1000 x double]* %4, i64 0, i64 %50
  store double %48, double* %51, align 8
  br label %52

52:                                               ; preds = %17
  %53 = load i32, i32* %6, align 4
  %54 = add nsw i32 %53, 1
  store i32 %54, i32* %6, align 4
  br label %14

55:                                               ; preds = %14
  store i32 0, i32* %6, align 4
  br label %56

56:                                               ; preds = %79, %55
  %57 = load i32, i32* %6, align 4
  %58 = load i32, i32* %8, align 4
  %59 = icmp slt i32 %57, %58
  br i1 %59, label %60, label %82

60:                                               ; preds = %56
  %61 = call i32 (i8*, ...) @__isoc99_scanf(i8* getelementptr inbounds ([3 x i8], [3 x i8]* @.str, i64 0, i64 0), i32* %5)
  store double 0.000000e+00, double* %9, align 8
  store i32 0, i32* %7, align 4
  br label %62

62:                                               ; preds = %73, %60
  %63 = load i32, i32* %7, align 4
  %64 = load i32, i32* %5, align 4
  %65 = icmp slt i32 %63, %64
  br i1 %65, label %66, label %76

66:                                               ; preds = %62
  %67 = load i32, i32* %7, align 4
  %68 = sext i32 %67 to i64
  %69 = getelementptr inbounds [1000 x double], [1000 x double]* %4, i64 0, i64 %68
  %70 = load double, double* %69, align 8
  %71 = load double, double* %9, align 8
  %72 = fadd double %71, %70
  store double %72, double* %9, align 8
  br label %73

73:                                               ; preds = %66
  %74 = load i32, i32* %7, align 4
  %75 = add nsw i32 %74, 1
  store i32 %75, i32* %7, align 4
  br label %62

76:                                               ; preds = %62
  %77 = load double, double* %9, align 8
  %78 = call i32 (i8*, ...) @printf(i8* getelementptr inbounds ([7 x i8], [7 x i8]* @.str.1, i64 0, i64 0), double %77)
  br label %79

79:                                               ; preds = %76
  %80 = load i32, i32* %6, align 4
  %81 = add nsw i32 %80, 1
  store i32 %81, i32* %6, align 4
  br label %56

82:                                               ; preds = %56
  ret i32 0
}

declare dso_local i32 @__isoc99_scanf(i8*, ...) #1

declare dso_local i32 @printf(i8*, ...) #1


!llvm.module.flags = !{!0}
!llvm.ident = !{!1}

!0 = !{i32 1, !"wchar_size", i32 4}
!1 = !{!"clang version 10.0.0-4ubuntu1 "}
